target datalayout = "e-m:e-p270:32:32-p271:32:32-p272:64:64-i64:64-i128:128-f80:128-n8:16:32:64-S128"
target triple = "x86_64-pc-linux-gnu"

%"class.gmx::ArrayRef" = type { %"struct.gmx::ArrayRefIter", %"struct.gmx::ArrayRefIter" }
%"struct.gmx::ArrayRefIter" = type { ptr }
%union.t_iparams = type { %struct.anon.21 }
%struct.anon.21 = type { [3 x float], [3 x float], [3 x float], [3 x float] }
%struct.anon.0 = type { float, float, float, float }

; Function Attrs: mustprogress nounwind uwtable
define linkonce_odr noundef float @_ZSt4sqrtf(float noundef %0) #3 comdat {
  %2 = alloca float, align 4
  store float %0, ptr %2, align 4
  %3 = load float, ptr %2, align 4
  %4 = call float @sqrtf(float noundef %3) #4
  ret float %4
}

; Function Attrs: mustprogress nounwind uwtable
define internal noundef float @_ZN3gmxL7invsqrtEf(float noundef %0) #3 {
  %2 = alloca float, align 4
  store float %0, ptr %2, align 4
  %3 = load float, ptr %2, align 4
  %4 = call noundef float @_ZSt4sqrtf(float noundef %3)
  %5 = fdiv float 1.000000e+00, %4
  ret float %5
}

; Function Attrs: mustprogress nounwind uwtable
define internal noundef float @_ZL5iprodPKfS0_(ptr noundef %0, ptr noundef %1) #3 {
  %3 = alloca ptr, align 8
  %4 = alloca ptr, align 8
  store ptr %0, ptr %3, align 8
  store ptr %1, ptr %4, align 8
  %5 = load ptr, ptr %3, align 8
  %6 = getelementptr inbounds float, ptr %5, i64 0
  %7 = load float, ptr %6, align 4
  %8 = load ptr, ptr %4, align 8
  %9 = getelementptr inbounds float, ptr %8, i64 0
  %10 = load float, ptr %9, align 4
  %11 = load ptr, ptr %3, align 8
  %12 = getelementptr inbounds float, ptr %11, i64 1
  %13 = load float, ptr %12, align 4
  %14 = load ptr, ptr %4, align 8
  %15 = getelementptr inbounds float, ptr %14, i64 1
  %16 = load float, ptr %15, align 4
  %17 = fmul float %13, %16
  %18 = call float @llvm.fmuladd.f32(float %7, float %10, float %17)
  %19 = load ptr, ptr %3, align 8
  %20 = getelementptr inbounds float, ptr %19, i64 2
  %21 = load float, ptr %20, align 4
  %22 = load ptr, ptr %4, align 8
  %23 = getelementptr inbounds float, ptr %22, i64 2
  %24 = load float, ptr %23, align 4
  %25 = call float @llvm.fmuladd.f32(float %21, float %24, float %18)
  ret float %25
}

; Function Attrs: mustprogress nounwind uwtable
define internal noundef float @_ZN12_GLOBAL__N_111g96harmonicEffffffPfS0_(float noundef %0, float noundef %1, float noundef %2, float noundef %3, float noundef %4, float noundef %5, ptr noundef %6, ptr noundef %7) #3 {
  %9 = alloca float, align 4
  %10 = alloca float, align 4
  %11 = alloca float, align 4
  %12 = alloca float, align 4
  %13 = alloca float, align 4
  %14 = alloca float, align 4
  %15 = alloca ptr, align 8
  %16 = alloca ptr, align 8
  %17 = alloca float, align 4
  %18 = alloca float, align 4
  %19 = alloca float, align 4
  %20 = alloca float, align 4
  %21 = alloca float, align 4
  %22 = alloca float, align 4
  %23 = alloca float, align 4
  %24 = alloca float, align 4
  %25 = alloca float, align 4
  store float %0, ptr %9, align 4
  store float %1, ptr %10, align 4
  store float %2, ptr %11, align 4
  store float %3, ptr %12, align 4
  store float %4, ptr %13, align 4
  store float %5, ptr %14, align 4
  store ptr %6, ptr %15, align 8
  store ptr %7, ptr %16, align 8
  store float 5.000000e-01, ptr %17, align 4
  %26 = load float, ptr %14, align 4
  %27 = fpext float %26 to double
  %28 = fsub double 1.000000e+00, %27
  %29 = fptrunc double %28 to float
  store float %29, ptr %18, align 4
  %30 = load float, ptr %18, align 4
  %31 = load float, ptr %9, align 4
  %32 = load float, ptr %14, align 4
  %33 = load float, ptr %10, align 4
  %34 = fmul float %32, %33
  %35 = call float @llvm.fmuladd.f32(float %30, float %31, float %34)
  store float %35, ptr %19, align 4
  %36 = load float, ptr %18, align 4
  %37 = load float, ptr %11, align 4
  %38 = load float, ptr %14, align 4
  %39 = load float, ptr %12, align 4
  %40 = fmul float %38, %39
  %41 = call float @llvm.fmuladd.f32(float %36, float %37, float %40)
  store float %41, ptr %20, align 4
  %42 = load float, ptr %13, align 4
  %43 = load float, ptr %20, align 4
  %44 = fsub float %42, %43
  store float %44, ptr %21, align 4
  %45 = load float, ptr %21, align 4
  %46 = load float, ptr %21, align 4
  %47 = fmul float %45, %46
  store float %47, ptr %22, align 4
  %48 = load float, ptr %19, align 4
  %49 = fneg float %48
  %50 = load float, ptr %21, align 4
  %51 = fmul float %49, %50
  store float %51, ptr %24, align 4
  %52 = load float, ptr %19, align 4
  %53 = fmul float 5.000000e-01, %52
  %54 = load float, ptr %22, align 4
  %55 = fmul float %53, %54
  store float %55, ptr %23, align 4
  %56 = load float, ptr %10, align 4
  %57 = load float, ptr %9, align 4
  %58 = fsub float %56, %57
  %59 = fmul float 5.000000e-01, %58
  %60 = load float, ptr %22, align 4
  %61 = load float, ptr %11, align 4
  %62 = load float, ptr %12, align 4
  %63 = fsub float %61, %62
  %64 = load float, ptr %19, align 4
  %65 = fmul float %63, %64
  %66 = load float, ptr %21, align 4
  %67 = fmul float %65, %66
  %68 = call float @llvm.fmuladd.f32(float %59, float %60, float %67)
  store float %68, ptr %25, align 4
  %69 = load float, ptr %24, align 4
  %70 = load ptr, ptr %16, align 8
  store float %69, ptr %70, align 4
  %71 = load float, ptr %23, align 4
  %72 = load ptr, ptr %15, align 8
  store float %71, ptr %72, align 4
  %73 = load float, ptr %25, align 4
  ret float %73
}

; Function Attrs: mustprogress uwtable
define internal noundef float @_ZN12_GLOBAL__N_19g96anglesIL18BondedKernelFlavor3EEEfiPKiPK9t_iparamsPA3_KfPA4_fPA3_fPK5t_pbcfPfN3gmx8ArrayRefIS7_EEP8t_fcdataP12t_disresdataP12t_oriresdataPi(i32 noundef %0, ptr noundef %1, ptr noundef %2, ptr noundef %3, ptr noundef %4, ptr noundef %5, ptr noundef %6, float noundef %7, ptr noundef %8, ptr noundef byval(%"class.gmx::ArrayRef") align 8 %9, ptr noundef %10, ptr noundef %11, ptr noundef %12, ptr noundef %13) #2 {
  %15 = alloca i32, align 4
  %16 = alloca ptr, align 8
  %17 = alloca ptr, align 8
  %18 = alloca ptr, align 8
  %19 = alloca ptr, align 8
  %20 = alloca ptr, align 8
  %21 = alloca ptr, align 8
  %22 = alloca float, align 4
  %23 = alloca ptr, align 8
  %24 = alloca ptr, align 8
  %25 = alloca ptr, align 8
  %26 = alloca ptr, align 8
  %27 = alloca ptr, align 8
  %28 = alloca i32, align 4
  %29 = alloca i32, align 4
  %30 = alloca i32, align 4
  %31 = alloca i32, align 4
  %32 = alloca i32, align 4
  %33 = alloca i32, align 4
  %34 = alloca i32, align 4
  %35 = alloca i32, align 4
  %36 = alloca [3 x float], align 4
  %37 = alloca [3 x float], align 4
  %38 = alloca float, align 4
  %39 = alloca float, align 4
  %40 = alloca float, align 4
  %41 = alloca float, align 4
  %42 = alloca float, align 4
  %43 = alloca float, align 4
  %44 = alloca float, align 4
  %45 = alloca float, align 4
  %46 = alloca float, align 4
  %47 = alloca [3 x float], align 4
  %48 = alloca [3 x float], align 4
  %49 = alloca [3 x float], align 4
  store i32 %0, ptr %15, align 4
  store ptr %1, ptr %16, align 8
  store ptr %2, ptr %17, align 8
  store ptr %3, ptr %18, align 8
  store ptr %4, ptr %19, align 8
  store ptr %5, ptr %20, align 8
  store ptr %6, ptr %21, align 8
  store float %7, ptr %22, align 4
  store ptr %8, ptr %23, align 8
  store ptr %10, ptr %24, align 8
  store ptr %11, ptr %25, align 8
  store ptr %12, ptr %26, align 8
  store ptr %13, ptr %27, align 8
  store float 0.000000e+00, ptr %41, align 4
  store i32 0, ptr %28, align 4
  br label %50

50:                                               ; preds = %247, %14
  %51 = load i32, ptr %28, align 4
  %52 = load i32, ptr %15, align 4
  %53 = icmp slt i32 %51, %52
  br i1 %53, label %54, label %248

54:                                               ; preds = %50
  %55 = load ptr, ptr %16, align 8
  %56 = load i32, ptr %28, align 4
  %57 = add nsw i32 %56, 1
  store i32 %57, ptr %28, align 4
  %58 = sext i32 %56 to i64
  %59 = getelementptr inbounds i32, ptr %55, i64 %58
  %60 = load i32, ptr %59, align 4
  store i32 %60, ptr %32, align 4
  %61 = load ptr, ptr %16, align 8
  %62 = load i32, ptr %28, align 4
  %63 = add nsw i32 %62, 1
  store i32 %63, ptr %28, align 4
  %64 = sext i32 %62 to i64
  %65 = getelementptr inbounds i32, ptr %61, i64 %64
  %66 = load i32, ptr %65, align 4
  store i32 %66, ptr %29, align 4
  %67 = load ptr, ptr %16, align 8
  %68 = load i32, ptr %28, align 4
  %69 = add nsw i32 %68, 1
  store i32 %69, ptr %28, align 4
  %70 = sext i32 %68 to i64
  %71 = getelementptr inbounds i32, ptr %67, i64 %70
  %72 = load i32, ptr %71, align 4
  store i32 %72, ptr %30, align 4
  %73 = load ptr, ptr %16, align 8
  %74 = load i32, ptr %28, align 4
  %75 = add nsw i32 %74, 1
  store i32 %75, ptr %28, align 4
  %76 = sext i32 %74 to i64
  %77 = getelementptr inbounds i32, ptr %73, i64 %76
  %78 = load i32, ptr %77, align 4
  store i32 %78, ptr %31, align 4
  %79 = load ptr, ptr %18, align 8
  %80 = load i32, ptr %29, align 4
  %81 = sext i32 %80 to i64
  %82 = getelementptr inbounds [3 x float], ptr %79, i64 %81
  %83 = getelementptr inbounds [3 x float], ptr %82, i64 0, i64 0
  %84 = load ptr, ptr %18, align 8
  %85 = load i32, ptr %30, align 4
  %86 = sext i32 %85 to i64
  %87 = getelementptr inbounds [3 x float], ptr %84, i64 %86
  %88 = getelementptr inbounds [3 x float], ptr %87, i64 0, i64 0
  %89 = load ptr, ptr %18, align 8
  %90 = load i32, ptr %31, align 4
  %91 = sext i32 %90 to i64
  %92 = getelementptr inbounds [3 x float], ptr %89, i64 %91
  %93 = getelementptr inbounds [3 x float], ptr %92, i64 0, i64 0
  %94 = load ptr, ptr %21, align 8
  %95 = getelementptr inbounds [3 x float], ptr %36, i64 0, i64 0
  %96 = getelementptr inbounds [3 x float], ptr %37, i64 0, i64 0
  %97 = call noundef float @_ZN12_GLOBAL__N_113g96bond_angleEPKfS1_S1_PK5t_pbcPfS5_PiS6_(ptr noundef %83, ptr noundef %88, ptr noundef %93, ptr noundef %94, ptr noundef %95, ptr noundef %96, ptr noundef %34, ptr noundef %35)
  store float %97, ptr %38, align 4
  %98 = load ptr, ptr %17, align 8
  %99 = load i32, ptr %32, align 4
  %100 = sext i32 %99 to i64
  %101 = getelementptr inbounds %union.t_iparams, ptr %98, i64 %100
  %102 = getelementptr inbounds %struct.anon.0, ptr %101, i32 0, i32 1
  %103 = load float, ptr %102, align 4
  %104 = load ptr, ptr %17, align 8
  %105 = load i32, ptr %32, align 4
  %106 = sext i32 %105 to i64
  %107 = getelementptr inbounds %union.t_iparams, ptr %104, i64 %106
  %108 = getelementptr inbounds %struct.anon.0, ptr %107, i32 0, i32 3
  %109 = load float, ptr %108, align 4
  %110 = load ptr, ptr %17, align 8
  %111 = load i32, ptr %32, align 4
  %112 = sext i32 %111 to i64
  %113 = getelementptr inbounds %union.t_iparams, ptr %110, i64 %112
  %114 = getelementptr inbounds %struct.anon.0, ptr %113, i32 0, i32 0
  %115 = load float, ptr %114, align 4
  %116 = load ptr, ptr %17, align 8
  %117 = load i32, ptr %32, align 4
  %118 = sext i32 %117 to i64
  %119 = getelementptr inbounds %union.t_iparams, ptr %116, i64 %118
  %120 = getelementptr inbounds %struct.anon.0, ptr %119, i32 0, i32 2
  %121 = load float, ptr %120, align 4
  %122 = load float, ptr %38, align 4
  %123 = load float, ptr %22, align 4
  %124 = call noundef float @_ZN12_GLOBAL__N_111g96harmonicEffffffPfS0_(float noundef %103, float noundef %109, float noundef %115, float noundef %121, float noundef %122, float noundef %123, ptr noundef %40, ptr noundef %39)
  %125 = load ptr, ptr %23, align 8
  %126 = load float, ptr %125, align 4
  %127 = fadd float %126, %124
  store float %127, ptr %125, align 4
  %128 = load float, ptr %40, align 4
  %129 = load float, ptr %41, align 4
  %130 = fadd float %129, %128
  store float %130, ptr %41, align 4
  %131 = getelementptr inbounds [3 x float], ptr %36, i64 0, i64 0
  %132 = getelementptr inbounds [3 x float], ptr %36, i64 0, i64 0
  %133 = call noundef float @_ZL5iprodPKfS0_(ptr noundef %131, ptr noundef %132)
  %134 = call noundef float @_ZN3gmxL7invsqrtEf(float noundef %133)
  store float %134, ptr %42, align 4
  %135 = getelementptr inbounds [3 x float], ptr %37, i64 0, i64 0
  %136 = getelementptr inbounds [3 x float], ptr %37, i64 0, i64 0
  %137 = call noundef float @_ZL5iprodPKfS0_(ptr noundef %135, ptr noundef %136)
  %138 = call noundef float @_ZN3gmxL7invsqrtEf(float noundef %137)
  store float %138, ptr %44, align 4
  %139 = load float, ptr %42, align 4
  %140 = load float, ptr %42, align 4
  %141 = fmul float %139, %140
  store float %141, ptr %43, align 4
  %142 = load float, ptr %44, align 4
  %143 = load float, ptr %44, align 4
  %144 = fmul float %142, %143
  store float %144, ptr %45, align 4
  %145 = load float, ptr %42, align 4
  %146 = load float, ptr %44, align 4
  %147 = fmul float %145, %146
  store float %147, ptr %46, align 4
  store i32 0, ptr %33, align 4
  br label %148

148:                                              ; preds = %244, %54
  %149 = load i32, ptr %33, align 4
  %150 = icmp slt i32 %149, 3
  br i1 %150, label %151, label %247

151:                                              ; preds = %148
  %152 = load float, ptr %39, align 4
  %153 = load i32, ptr %33, align 4
  %154 = sext i32 %153 to i64
  %155 = getelementptr inbounds [3 x float], ptr %37, i64 0, i64 %154
  %156 = load float, ptr %155, align 4
  %157 = load float, ptr %46, align 4
  %158 = load i32, ptr %33, align 4
  %159 = sext i32 %158 to i64
  %160 = getelementptr inbounds [3 x float], ptr %36, i64 0, i64 %159
  %161 = load float, ptr %160, align 4
  %162 = load float, ptr %43, align 4
  %163 = fmul float %161, %162
  %164 = load float, ptr %38, align 4
  %165 = fmul float %163, %164
  %166 = fneg float %165
  %167 = call float @llvm.fmuladd.f32(float %156, float %157, float %166)
  %168 = fmul float %152, %167
  %169 = load i32, ptr %33, align 4
  %170 = sext i32 %169 to i64
  %171 = getelementptr inbounds [3 x float], ptr %47, i64 0, i64 %170
  store float %168, ptr %171, align 4
  %172 = load float, ptr %39, align 4
  %173 = load i32, ptr %33, align 4
  %174 = sext i32 %173 to i64
  %175 = getelementptr inbounds [3 x float], ptr %36, i64 0, i64 %174
  %176 = load float, ptr %175, align 4
  %177 = load float, ptr %46, align 4
  %178 = load i32, ptr %33, align 4
  %179 = sext i32 %178 to i64
  %180 = getelementptr inbounds [3 x float], ptr %37, i64 0, i64 %179
  %181 = load float, ptr %180, align 4
  %182 = load float, ptr %45, align 4
  %183 = fmul float %181, %182
  %184 = load float, ptr %38, align 4
  %185 = fmul float %183, %184
  %186 = fneg float %185
  %187 = call float @llvm.fmuladd.f32(float %176, float %177, float %186)
  %188 = fmul float %172, %187
  %189 = load i32, ptr %33, align 4
  %190 = sext i32 %189 to i64
  %191 = getelementptr inbounds [3 x float], ptr %49, i64 0, i64 %190
  store float %188, ptr %191, align 4
  %192 = load i32, ptr %33, align 4
  %193 = sext i32 %192 to i64
  %194 = getelementptr inbounds [3 x float], ptr %47, i64 0, i64 %193
  %195 = load float, ptr %194, align 4
  %196 = fneg float %195
  %197 = load i32, ptr %33, align 4
  %198 = sext i32 %197 to i64
  %199 = getelementptr inbounds [3 x float], ptr %49, i64 0, i64 %198
  %200 = load float, ptr %199, align 4
  %201 = fsub float %196, %200
  %202 = load i32, ptr %33, align 4
  %203 = sext i32 %202 to i64
  %204 = getelementptr inbounds [3 x float], ptr %48, i64 0, i64 %203
  store float %201, ptr %204, align 4
  %205 = load i32, ptr %33, align 4
  %206 = sext i32 %205 to i64
  %207 = getelementptr inbounds [3 x float], ptr %47, i64 0, i64 %206
  %208 = load float, ptr %207, align 4
  %209 = load ptr, ptr %19, align 8
  %210 = load i32, ptr %29, align 4
  %211 = sext i32 %210 to i64
  %212 = getelementptr inbounds [4 x float], ptr %209, i64 %211
  %213 = load i32, ptr %33, align 4
  %214 = sext i32 %213 to i64
  %215 = getelementptr inbounds [4 x float], ptr %212, i64 0, i64 %214
  %216 = load float, ptr %215, align 4
  %217 = fadd float %216, %208
  store float %217, ptr %215, align 4
  %218 = load i32, ptr %33, align 4
  %219 = sext i32 %218 to i64
  %220 = getelementptr inbounds [3 x float], ptr %48, i64 0, i64 %219
  %221 = load float, ptr %220, align 4
  %222 = load ptr, ptr %19, align 8
  %223 = load i32, ptr %30, align 4
  %224 = sext i32 %223 to i64
  %225 = getelementptr inbounds [4 x float], ptr %222, i64 %224
  %226 = load i32, ptr %33, align 4
  %227 = sext i32 %226 to i64
  %228 = getelementptr inbounds [4 x float], ptr %225, i64 0, i64 %227
  %229 = load float, ptr %228, align 4
  %230 = fadd float %229, %221
  store float %230, ptr %228, align 4
  %231 = load i32, ptr %33, align 4
  %232 = sext i32 %231 to i64
  %233 = getelementptr inbounds [3 x float], ptr %49, i64 0, i64 %232
  %234 = load float, ptr %233, align 4
  %235 = load ptr, ptr %19, align 8
  %236 = load i32, ptr %31, align 4
  %237 = sext i32 %236 to i64
  %238 = getelementptr inbounds [4 x float], ptr %235, i64 %237
  %239 = load i32, ptr %33, align 4
  %240 = sext i32 %239 to i64
  %241 = getelementptr inbounds [4 x float], ptr %238, i64 0, i64 %240
  %242 = load float, ptr %241, align 4
  %243 = fadd float %242, %234
  store float %243, ptr %241, align 4
  br label %244

244:                                              ; preds = %151
  %245 = load i32, ptr %33, align 4
  %246 = add nsw i32 %245, 1
  store i32 %246, ptr %33, align 4
  br label %148, !llvm.loop !166

247:                                              ; preds = %148
  br label %50, !llvm.loop !167

248:                                              ; preds = %50
  %249 = load float, ptr %41, align 4
  ret float %249
}