; Function Attrs: mustprogress uwtable
define internal noundef float @_ZN12_GLOBAL__N_19g96anglesIL18BondedKernelFlavor3EEEfiPKiPK9t_iparamsPA3_KfPA4_fPA3_fPK5t_pbcfPfN3gmx8ArrayRefIS7_EEP8t_fcdataP12t_disresdataP12t_oriresdataPi(i32 noundef %0, ptr nocapture noundef readonly %1, ptr nocapture noundef readonly %2, ptr noundef %3, ptr nocapture noundef %4, ptr nocapture readnone %5, ptr noundef %6, float noundef %7, ptr nocapture noundef %8, ptr nocapture noundef readnone byval(%"class.gmx::ArrayRef") align 8 %9, ptr nocapture readnone %10, ptr nocapture readnone %11, ptr nocapture readnone %12, ptr nocapture readnone %13) #4 {
  %15 = alloca i32, align 4
  %16 = alloca i32, align 4
  %17 = alloca [3 x float], align 4
  %18 = alloca [3 x float], align 4
  %19 = icmp sgt i32 %0, 0
  br i1 %19, label %.lr.ph, label %._crit_edge

.lr.ph:                                           ; preds = %14
  %20 = fsub float 1.000000e+00, %7
  %21 = getelementptr inbounds i8, ptr %17, i64 4
  %22 = getelementptr inbounds i8, ptr %17, i64 8
  %23 = getelementptr inbounds i8, ptr %18, i64 4
  %24 = getelementptr inbounds i8, ptr %18, i64 8
  br label %29

.loopexit:                                        ; preds = %89
  %indvars.iv.next74 = add nuw nsw i64 %indvars.iv73, 4
  %25 = fmul float %63, %60
  %26 = fadd float %.06570, %25
  %27 = trunc nuw i64 %indvars.iv.next74 to i32
  %28 = icmp slt i32 %27, %0
  br i1 %28, label %29, label %._crit_edge, !llvm.loop !170

29:                                               ; preds = %.lr.ph, %.loopexit
  %indvars.iv73 = phi i64 [ 0, %.lr.ph ], [ %indvars.iv.next74, %.loopexit ]
  %.06570 = phi float [ 0.000000e+00, %.lr.ph ], [ %26, %.loopexit ]
  %30 = getelementptr inbounds i32, ptr %1, i64 %indvars.iv73
  %31 = load i32, ptr %30, align 4
  %32 = getelementptr i8, ptr %30, i64 4
  %33 = load i32, ptr %32, align 4
  %34 = or disjoint i64 %indvars.iv73, 3
  %35 = getelementptr i8, ptr %30, i64 8
  %36 = load i32, ptr %35, align 4
  %37 = getelementptr inbounds i32, ptr %1, i64 %34
  %38 = load i32, ptr %37, align 4
  %39 = sext i32 %33 to i64
  %40 = getelementptr inbounds [3 x float], ptr %3, i64 %39
  %41 = sext i32 %36 to i64
  %42 = getelementptr inbounds [3 x float], ptr %3, i64 %41
  %43 = sext i32 %38 to i64
  %44 = getelementptr inbounds [3 x float], ptr %3, i64 %43
  %45 = call fastcc noundef float @_ZN12_GLOBAL__N_113g96bond_angleEPKfS1_S1_PK5t_pbcPfS5_PiS6_(ptr noundef %40, ptr noundef %42, ptr noundef %44, ptr noundef %6, ptr noundef nonnull %17, ptr noundef nonnull %18, ptr noundef nonnull %15, ptr noundef nonnull %16)
  %46 = sext i32 %31 to i64
  %47 = getelementptr inbounds %union.t_iparams, ptr %2, i64 %46
  %48 = getelementptr inbounds i8, ptr %47, i64 4
  %49 = load float, ptr %48, align 4
  %50 = getelementptr inbounds i8, ptr %47, i64 12
  %51 = load float, ptr %50, align 4
  %52 = load float, ptr %47, align 4
  %53 = getelementptr inbounds i8, ptr %47, i64 8
  %54 = load float, ptr %53, align 4
  %55 = fmul float %51, %7
  %56 = call float @llvm.fmuladd.f32(float %20, float %49, float %55)
  %57 = fmul float %54, %7
  %58 = call float @llvm.fmuladd.f32(float %20, float %52, float %57)
  %59 = fsub float %45, %58
  %60 = fmul float %59, %59
  %61 = fneg float %56
  %62 = fmul float %59, %61
  %63 = fmul float %56, 5.000000e-01
  %64 = fsub float %51, %49
  %65 = fmul float %64, 5.000000e-01
  %66 = fsub float %52, %54
  %67 = fmul float %56, %66
  %68 = fmul float %67, %59
  %69 = call noundef float @llvm.fmuladd.f32(float %65, float %60, float %68)
  %70 = load float, ptr %8, align 4
  %71 = fadd float %70, %69
  store float %71, ptr %8, align 4
  %72 = load float, ptr %17, align 4
  %73 = load float, ptr %21, align 4
  %74 = fmul float %73, %73
  %75 = call float @llvm.fmuladd.f32(float %72, float %72, float %74)
  %76 = load float, ptr %22, align 4
  %77 = call noundef float @llvm.fmuladd.f32(float %76, float %76, float %75)
  %sqrt68 = call float @llvm.sqrt.f32(float %77)
  %78 = fdiv float 1.000000e+00, %sqrt68
  %79 = load float, ptr %18, align 4
  %80 = load float, ptr %23, align 4
  %81 = fmul float %80, %80
  %82 = call float @llvm.fmuladd.f32(float %79, float %79, float %81)
  %83 = load float, ptr %24, align 4
  %84 = call noundef float @llvm.fmuladd.f32(float %83, float %83, float %82)
  %sqrt = call float @llvm.sqrt.f32(float %84)
  %85 = fdiv float 1.000000e+00, %sqrt
  %86 = fmul float %78, %78
  %87 = fmul float %85, %85
  %88 = fmul float %78, %85
  br label %89

89:                                               ; preds = %29, %89
  %indvars.iv = phi i64 [ 0, %29 ], [ %indvars.iv.next, %89 ]
  %90 = getelementptr inbounds [3 x float], ptr %18, i64 0, i64 %indvars.iv
  %91 = load float, ptr %90, align 4
  %92 = getelementptr inbounds [3 x float], ptr %17, i64 0, i64 %indvars.iv
  %93 = load float, ptr %92, align 4
  %94 = fneg float %93
  %95 = fmul float %86, %94
  %96 = fmul float %45, %95
  %97 = call float @llvm.fmuladd.f32(float %91, float %88, float %96)
  %98 = fmul float %62, %97
  %99 = fneg float %91
  %100 = fmul float %87, %99
  %101 = fmul float %45, %100
  %102 = call float @llvm.fmuladd.f32(float %93, float %88, float %101)
  %103 = fmul float %62, %102
  %104 = fneg float %98
  %105 = fsub float %104, %103
  %106 = getelementptr inbounds [4 x float], ptr %4, i64 %39, i64 %indvars.iv
  %107 = load float, ptr %106, align 4
  %108 = fadd float %107, %98
  store float %108, ptr %106, align 4
  %109 = getelementptr inbounds [4 x float], ptr %4, i64 %41, i64 %indvars.iv
  %110 = load float, ptr %109, align 4
  %111 = fadd float %110, %105
  store float %111, ptr %109, align 4
  %112 = getelementptr inbounds [4 x float], ptr %4, i64 %43, i64 %indvars.iv
  %113 = load float, ptr %112, align 4
  %114 = fadd float %103, %113
  store float %114, ptr %112, align 4
  %indvars.iv.next = add nuw nsw i64 %indvars.iv, 1
  %exitcond.not = icmp eq i64 %indvars.iv.next, 3
  br i1 %exitcond.not, label %.loopexit, label %89, !llvm.loop !171

._crit_edge:                                      ; preds = %.loopexit, %14
  %.065.lcssa = phi float [ 0.000000e+00, %14 ], [ %26, %.loopexit ]
  ret float %.065.lcssa
}